; Function Attrs: mustprogress nounwind uwtable
define internal fastcc void @_ZSt8_DestroyIPZN32pxrInternal_v0_24__pxrReserved__43HdGpGenerativeProceduralResolvingSceneIndex13_PrimsDirtiedERKNS0_16HdSceneIndexBaseERKNS0_13TfSmallVectorINS0_20HdSceneIndexObserver16DirtiedPrimEntryELj16EEEE10_CookEntryEvT_SD_(ptr noundef %0, ptr noundef readnone %1) unnamed_addr #2 personality ptr @__gxx_personality_v0 {
  %.not4.i = icmp eq ptr %0, %1
  br i1 %.not4.i, label %_ZNSt12_Destroy_auxILb0EE9__destroyIPZN32pxrInternal_v0_24__pxrReserved__43HdGpGenerativeProceduralResolvingSceneIndex13_PrimsDirtiedERKNS2_16HdSceneIndexBaseERKNS2_13TfSmallVectorINS2_20HdSceneIndexObserver16DirtiedPrimEntryELj16EEEE10_CookEntryEEvT_SF_.exit, label %.lr.ph.i

.lr.ph.i:                                         ; preds = %2, %_ZSt8_DestroyIZN32pxrInternal_v0_24__pxrReserved__43HdGpGenerativeProceduralResolvingSceneIndex13_PrimsDirtiedERKNS0_16HdSceneIndexBaseERKNS0_13TfSmallVectorINS0_20HdSceneIndexObserver16DirtiedPrimEntryELj16EEEE10_CookEntryEvPT_.exit.i
  %.05.i = phi ptr [ %22, %_ZSt8_DestroyIZN32pxrInternal_v0_24__pxrReserved__43HdGpGenerativeProceduralResolvingSceneIndex13_PrimsDirtiedERKNS0_16HdSceneIndexBaseERKNS0_13TfSmallVectorINS0_20HdSceneIndexObserver16DirtiedPrimEntryELj16EEEE10_CookEntryEvPT_.exit.i ], [ %0, %2 ]
  %3 = getelementptr inbounds nuw i8, ptr %.05.i, i64 8
  tail call void @_ZN32pxrInternal_v0_24__pxrReserved__43HdGpGenerativeProceduralResolvingSceneIndex8_NoticesD2Ev(ptr noundef nonnull align 8 dereferenceable(7832) %3) #23
  %4 = load i32, ptr %.05.i, align 4
  %.not.i.i.i.i.i = icmp eq i32 %4, 0
  br i1 %.not.i.i.i.i.i, label %_ZSt8_DestroyIZN32pxrInternal_v0_24__pxrReserved__43HdGpGenerativeProceduralResolvingSceneIndex13_PrimsDirtiedERKNS0_16HdSceneIndexBaseERKNS0_13TfSmallVectorINS0_20HdSceneIndexObserver16DirtiedPrimEntryELj16EEEE10_CookEntryEvPT_.exit.i, label %5

5:                                                ; preds = %.lr.ph.i
  %6 = and i32 %4, 255
  %7 = lshr i32 %4, 8
  %8 = zext nneg i32 %6 to i64
  %9 = getelementptr inbounds nuw [257 x ptr], ptr @_ZN32pxrInternal_v0_24__pxrReserved__8Sdf_PoolINS_15Sdf_PathPrimTagELj24ELj8ELj16384EE13_regionStartsE, i64 0, i64 %8
  %10 = load ptr, ptr %9, align 8
  %11 = mul nuw nsw i32 %7, 24
  %12 = zext nneg i32 %11 to i64
  %13 = getelementptr inbounds nuw i8, ptr %10, i64 %12
  %14 = getelementptr inbounds nuw i8, ptr %13, i64 8
  %15 = atomicrmw sub ptr %14, i32 1 seq_cst, align 4
  %16 = and i32 %15, 2147483647
  %17 = icmp eq i32 %16, 1
  br i1 %17, label %18, label %_ZSt8_DestroyIZN32pxrInternal_v0_24__pxrReserved__43HdGpGenerativeProceduralResolvingSceneIndex13_PrimsDirtiedERKNS0_16HdSceneIndexBaseERKNS0_13TfSmallVectorINS0_20HdSceneIndexObserver16DirtiedPrimEntryELj16EEEE10_CookEntryEvPT_.exit.i

18:                                               ; preds = %5
  invoke void @_ZNK32pxrInternal_v0_24__pxrReserved__12Sdf_PathNode8_DestroyEv(ptr noundef nonnull align 8 dereferenceable(16) %13)
          to label %_ZSt8_DestroyIZN32pxrInternal_v0_24__pxrReserved__43HdGpGenerativeProceduralResolvingSceneIndex13_PrimsDirtiedERKNS0_16HdSceneIndexBaseERKNS0_13TfSmallVectorINS0_20HdSceneIndexObserver16DirtiedPrimEntryELj16EEEE10_CookEntryEvPT_.exit.i unwind label %19

19:                                               ; preds = %18
  %20 = landingpad { ptr, i32 }
          catch ptr null
  %21 = extractvalue { ptr, i32 } %20, 0
  tail call void @__clang_call_terminate(ptr %21) #24
  unreachable

_ZSt8_DestroyIZN32pxrInternal_v0_24__pxrReserved__43HdGpGenerativeProceduralResolvingSceneIndex13_PrimsDirtiedERKNS0_16HdSceneIndexBaseERKNS0_13TfSmallVectorINS0_20HdSceneIndexObserver16DirtiedPrimEntryELj16EEEE10_CookEntryEvPT_.exit.i: ; preds = %18, %5, %.lr.ph.i
  %22 = getelementptr inbounds nuw i8, ptr %.05.i, i64 7848
  %.not.i = icmp eq ptr %22, %1
  br i1 %.not.i, label %_ZNSt12_Destroy_auxILb0EE9__destroyIPZN32pxrInternal_v0_24__pxrReserved__43HdGpGenerativeProceduralResolvingSceneIndex13_PrimsDirtiedERKNS2_16HdSceneIndexBaseERKNS2_13TfSmallVectorINS2_20HdSceneIndexObserver16DirtiedPrimEntryELj16EEEE10_CookEntryEEvT_SF_.exit, label %.lr.ph.i, !llvm.loop !238

_ZNSt12_Destroy_auxILb0EE9__destroyIPZN32pxrInternal_v0_24__pxrReserved__43HdGpGenerativeProceduralResolvingSceneIndex13_PrimsDirtiedERKNS2_16HdSceneIndexBaseERKNS2_13TfSmallVectorINS2_20HdSceneIndexObserver16DirtiedPrimEntryELj16EEEE10_CookEntryEEvT_SF_.exit: ; preds = %_ZSt8_DestroyIZN32pxrInternal_v0_24__pxrReserved__43HdGpGenerativeProceduralResolvingSceneIndex13_PrimsDirtiedERKNS0_16HdSceneIndexBaseERKNS0_13TfSmallVectorINS0_20HdSceneIndexObserver16DirtiedPrimEntryELj16EEEE10_CookEntryEvPT_.exit.i, %2
  ret void
}